(dp0
S'Captain'
p1
(dp2
S'Shoot'
p3
V2
p4
sS'Shield'
p5
V12
p6
sS'Items'
p7
(lp8
VBlade
p9
aVBlade
p10
aVBlade
p11
aVBlade
p12
asS'Move'
p13
V6
p14
sS'Experience'
p15
V10
p16
sS'Fight'
p17
V20
p18
sS'Morale'
p19
V4
p20
sS'Skillset'
p21
(lp22
VAim
p23
aVAim
p24
aVAim
p25
aVAim
p26
asS'Cost'
p27
I0
sS'Health'
p28
V12
p29
sS'Specialism'
p30
VMarksman
p31
ssS'Treasury'
p32
I488
sS'Name'
p33
Vnew
p34
sS'Troops'
p35
(lp36
s.